(i__main__
RiskGame
p1
(dp2
S'deck'
p3
(lp4
(i__main__
RiskTerritory
p5
(dp6
S'owner'
p7
(i__main__
RiskPlayer
p8
(dp9
S'cards'
p10
(lp11
sS'territories'
p12
(lp13
(i__main__
RiskTerritory
p14
(dp15
g7
g8
sS'neighbors'
p16
(lp17
(i__main__
RiskTerritory
p18
(dp19
g7
(i__main__
RiskPlayer
p20
(dp21
g10
(lp22
sg12
(lp23
(i__main__
RiskTerritory
p24
(dp25
g7
g20
sg16
(lp26
(i__main__
RiskTerritory
p27
(dp28
g7
g8
sg16
(lp29
(i__main__
RiskTerritory
p30
(dp31
g7
(i__main__
RiskPlayer
p32
(dp33
g10
(lp34
sg12
(lp35
(i__main__
RiskTerritory
p36
(dp37
g7
g32
sg16
(lp38
(i__main__
RiskTerritory
p39
(dp40
g7
g8
sg16
(lp41
(i__main__
RiskTerritory
p42
(dp43
g7
g20
sg16
(lp44
(i__main__
RiskTerritory
p45
(dp46
g7
g8
sg16
(lp47
(i__main__
RiskTerritory
p48
(dp49
g7
g32
sg16
(lp50
g45
a(i__main__
RiskTerritory
p51
(dp52
g7
g32
sg16
(lp53
(i__main__
RiskTerritory
p54
(dp55
g7
g32
sg16
(lp56
(i__main__
RiskTerritory
p57
(dp58
g7
g8
sg16
(lp59
(i__main__
RiskTerritory
p60
(dp61
g7
g8
sg16
(lp62
(i__main__
RiskTerritory
p63
(dp64
g7
g32
sg16
(lp65
(i__main__
RiskTerritory
p66
(dp67
g7
g20
sg16
(lp68
(i__main__
RiskTerritory
p69
(dp70
g7
g32
sg16
(lp71
(i__main__
RiskTerritory
p72
(dp73
g7
g32
sg16
(lp74
g18
a(i__main__
RiskTerritory
p75
(dp76
g7
g32
sg16
(lp77
g18
ag72
ag69
a(i__main__
RiskTerritory
p78
(dp79
g7
g32
sg16
(lp80
g18
ag75
a(i__main__
RiskTerritory
p81
(dp82
g7
g20
sg16
(lp83
g18
ag78
asS'star'
p84
I1
sS'name'
p85
S'Japan'
p86
sS'troops'
p87
I1
sbag66
asg84
I2
sg85
S'Mongolia'
p88
sg87
I2
sbasg84
I1
sg85
S'Inkutsk'
p89
sg87
I1
sbag69
asg84
I2
sg85
S'Yakutsk'
p90
sg87
I2
sbag75
a(i__main__
RiskTerritory
p91
(dp92
g7
g8
sg16
(lp93
g69
ag66
a(i__main__
RiskTerritory
p94
(dp95
g7
g20
sg16
(lp96
g91
a(i__main__
RiskTerritory
p97
(dp98
g7
g32
sg16
(lp99
g91
ag66
ag63
ag60
ag94
asg84
I2
sg85
S'Afghanistan'
p100
sg87
I2
sbag60
ag57
a(i__main__
RiskTerritory
p101
(dp102
g7
g20
sg16
(lp103
g94
ag57
a(i__main__
RiskTerritory
p104
(dp105
g7
g20
sg16
(lp106
g57
ag101
a(i__main__
RiskTerritory
p107
(dp108
g7
g8
sg16
(lp109
g104
ag101
a(i__main__
RiskTerritory
p110
(dp111
g7
g8
sg16
(lp112
g94
ag101
ag107
ag30
asg84
I1
sg85
S'Scandinavia'
p113
sg87
I1
sbag30
asg84
I1
sg85
S'Great Britain'
p114
sg87
I1
sbag54
asg84
I2
sg85
S'Western Europe'
p115
sg87
I2
sbag110
ag107
ag30
asg84
I1
sg85
S'Northern Europe'
p116
sg87
I1
sbag110
asg84
I1
sg85
S'Russia'
p117
sg87
I1
sbag97
asg84
I1
sg85
S'Ural'
p118
sg87
I1
sbag66
asg84
I1
sg85
S'Siberia'
p119
sg87
I1
sbag91
ag78
a(i__main__
RiskTerritory
p120
(dp121
g7
g8
sg16
(lp122
g66
ag63
a(i__main__
RiskTerritory
p123
(dp124
g7
g32
sg16
(lp125
g120
a(i__main__
RiskTerritory
p126
(dp127
g7
g20
sg16
(lp128
(i__main__
RiskTerritory
p129
(dp130
g7
g20
sg16
(lp131
g126
a(i__main__
RiskTerritory
p132
(dp133
g7
g8
sg16
(lp134
g129
ag123
asg84
I1
sg85
S'Papua'
p135
sg87
I1
sbasg84
I1
sg85
S'Eastern Australia'
p136
sg87
I1
sbag123
asg84
I1
sg85
S'Western Australia'
p137
sg87
I1
sbag132
asg84
I1
sg85
S'Indonesia'
p138
sg87
I1
sbasg84
I1
sg85
S'Southeast Asia'
p139
sg87
I1
sbag63
ag97
asg84
I1
sg85
S'China'
p140
sg87
I1
sbag120
ag97
ag60
asg84
I1
sg85
S'India'
p141
sg87
I1
sbag97
ag94
ag57
a(i__main__
RiskTerritory
p142
(dp143
g7
g20
sg16
(lp144
g60
ag5
a(i__main__
RiskTerritory
p145
(dp146
g7
g20
sg16
(lp147
g5
a(i__main__
RiskTerritory
p148
(dp149
g7
g20
sg16
(lp150
g145
ag142
ag54
asg84
I2
sg85
S'Central Africa'
p151
sg87
I2
sbag142
asg84
I1
sg85
S'South Africa'
p152
sg87
I1
sbag148
a(i__main__
RiskTerritory
p153
(dp154
g7
g20
sg16
(lp155
g60
ag57
ag142
ag54
asg84
I1
sg85
S'Egypt'
p156
sg87
I1
sbag54
asg84
I1
sg85
S'East Africa'
p157
sg87
I1
sbag153
asg84
I1
sg85
S'Middle East'
p158
sg87
I1
sbag94
ag104
ag101
ag153
ag54
asg84
I1
sg85
S'Southern Europe'
p159
sg87
I1
sbag104
ag148
ag142
ag153
ag51
asg84
I1
sg85
S'North Africa'
p160
sg87
I1
sbag45
ag48
a(i__main__
RiskTerritory
p161
(dp162
g7
g32
sg16
(lp163
g48
ag51
asg84
I1
sg85
S'Argentina'
p164
sg87
I1
sbasg84
I2
sg85
S'Brazil'
p165
sg87
I2
sbag161
asg84
I1
sg85
S'Peru'
p166
sg87
I1
sbag51
ag42
asg84
I1
sg85
S'Venezuela'
p167
sg87
I1
sbag39
a(i__main__
RiskTerritory
p168
(dp169
g7
g32
sg16
(lp170
g42
ag39
a(i__main__
RiskTerritory
p171
(dp172
g7
g8
sg16
(lp173
g39
ag168
ag27
ag36
a(i__main__
RiskTerritory
p174
(dp175
g7
g8
sg16
(lp176
g168
ag171
ag24
ag14
asg84
I1
sg85
S'Alberta'
p177
sg87
I1
sbag24
asg84
I1
sg85
S'Ontario'
p178
sg87
I1
sbag174
asg84
I1
sg85
S'Western America'
p179
sg87
I1
sbasg84
I1
sg85
S'Central America'
p180
sg87
I1
sbag168
ag36
ag171
asg84
I2
sg85
S'Eastern America'
p181
sg87
I2
sbag27
ag171
asg84
I1
sg85
S'Eastern Canada'
p182
sg87
I1
sbag168
ag161
ag51
ag48
ag30
ag97
ag63
ag78
ag69
ag75
ag72
ag54
ag123
asg85
S'Keni'
p183
sS'reserve'
p184
I0
sbsg16
(lp185
g101
ag110
ag107
ag27
asg84
I1
sg85
S'Iceland'
p186
sg87
I1
sbag36
ag171
ag24
asg84
I1
sg85
S'Greenland'
p187
sg87
I1
sbag171
ag174
ag14
asg84
I1
sg85
S'Northern Canada'
p188
sg87
I1
sbag42
ag101
ag104
ag94
ag66
ag81
ag18
ag153
ag142
ag148
ag145
ag126
ag129
asg85
S'Gunar'
p189
sg184
I0
sbsg16
(lp190
g72
ag75
ag81
ag78
ag14
asg84
I1
sg85
S'Kamchatka'
p191
sg87
I1
sbag174
ag24
asg84
I1
sg85
S'Alaska'
p192
sg87
I1
sbag174
ag171
ag27
ag39
ag45
ag107
ag110
ag57
ag60
ag120
ag91
ag5
ag132
asg85
S'Pandu'
p193
sg184
I8
sbsg16
(lp194
g145
ag142
asg84
I1
sg85
S'Madagascar'
p195
sg87
I1
sbag101
ag129
ag66
ag24
ag27
ag45
ag57
ag120
ag110
ag107
ag60
ag48
ag42
ag39
ag18
ag171
ag126
ag153
ag51
ag14
ag72
ag81
ag104
ag148
ag94
ag75
ag174
ag69
ag30
ag36
ag54
ag132
ag161
ag97
ag78
ag91
ag123
ag145
ag168
ag142
ag63
asS'level'
p196
(i__main__
RiskLevel
p197
(dp198
S'groups'
p199
(lp200
(i__main__
RiskTerritoryGroup
p201
(dp202
S'bonus'
p203
I7
sS'regions'
p204
(lp205
g14
ag24
ag174
ag171
ag36
ag27
ag168
ag39
ag42
asg85
S'North America'
p206
sba(i__main__
RiskTerritoryGroup
p207
(dp208
g203
I2
sg204
(lp209
g161
ag51
ag48
ag45
asg85
S'South America'
p210
sba(i__main__
RiskTerritoryGroup
p211
(dp212
g203
I5
sg204
(lp213
g30
ag107
ag110
ag101
ag104
ag57
ag94
asg85
S'Europe'
p214
sba(i__main__
RiskTerritoryGroup
p215
(dp216
g203
I9
sg204
(lp217
g60
ag97
ag63
ag120
ag66
ag78
ag81
ag91
ag69
ag75
ag72
ag18
asg85
S'Asia'
p218
sba(i__main__
RiskTerritoryGroup
p219
(dp220
g203
I3
sg204
(lp221
g54
ag153
ag142
ag148
ag145
ag5
asg85
S'Africa'
p222
sba(i__main__
RiskTerritoryGroup
p223
(dp224
g203
I2
sg204
(lp225
g123
ag132
ag126
ag129
asg85
S'Indo-Australia'
p226
sbasg85
S'Original board game'
p227
sS'min_territories'
p228
(lp229
I25
aI20
aI15
asS'trade_count'
p230
(lp231
I2
aI4
aI7
aI10
aI13
aI17
aI21
aI26
aI30
asg12
(lp232
g129
ag153
ag123
ag126
ag132
ag18
ag72
ag75
ag104
ag101
ag94
ag57
ag30
ag54
ag110
ag107
ag63
ag97
ag60
ag81
ag78
ag66
ag120
ag69
ag91
ag148
ag145
ag48
ag51
ag161
ag5
ag45
ag24
ag174
ag14
ag27
ag168
ag171
ag36
ag39
ag42
ag142
asS'max_trade'
p233
I10
sS'min_player'
p234
I3
sS'min_trade'
p235
I2
sS'max_player'
p236
I5
sbsS'turn_order'
p237
(lp238
g8
ag32
ag20
asS'players'
p239
(lp240
g8
ag20
ag32
asS'state'
p241
I3
sS'leveldir'
p242
S'levels'
p243
sS'active'
p244
NsS'turn'
p245
I0
sS'num_turn'
p246
I0
sb.